(dp0
S'oiii88'
p1
(dp2
S'plotNum'
p3
I1
sS'texLabel'
p4
S'[O III] 88 $\\mu$m'
p5
sS'restWave'
p6
F88.356
sS'specRes'
p7
F124.6
sS'spatRes'
p8
F9.5
ssS'oi63'
p9
(dp10
g3
I0
sg4
S'[O I] 63 $\\mu$m'
p11
sg6
F63.185
sg7
F87.4
sg8
F9.5
ssS'cii158'
p12
(dp13
g3
I4
sg4
S'[C II] 158 $\\mu$m'
p14
sg6
F157.74
sg7
F239.3
sg8
F11.5
ssS'oi145'
p15
(dp16
g3
I3
sg4
S'[O I] 145 $\\mu$m'
p17
sg6
F145.535
sg7
F257.1
sg8
I11
ssS'nii122'
p18
(dp19
g3
I2
sg4
S'[N II] 122 $\\mu$m'
p20
sg6
F121.89
sg7
F291.4
sg8
I10
ss.