(dp0
S'ngc253'
p1
(dp2
S'centerCoo'
p3
(F11.888002
F-25.28822
tp4
sS'1arcScaleBar'
p5
S'155 pc'
p6
sS'redshift'
p7
F0.000811
ssS'ngc1068'
p8
(dp9
g3
(F40.6696292
F-0.0132806
tp10
sg5
S'528 pc'
p11
sg7
F0.003793
ssS'ngc4945'
p12
(dp13
g3
(F196.3644897
F-49.4682129
tp14
sg5
S'194 pc'
p15
sg7
F0.001878
ssS'circinus'
p16
(dp17
g3
(F213.2914583
F-65.3392222
tp18
sg5
S'204 pc'
p19
sg7
F0.001448
ssS'cenA'
p20
(dp21
g3
(F201.3650633
F-43.0191125
tp22
sg5
S'186 pc'
p23
sg7
F0.001825
ssS'm82'
p24
(dp25
S'distance'
p26
F3.6
sg7
F0.000677
sS'majorPA'
p27
I65
sg5
S'175 pc'
p28
sg3
(F148.969687
F69.679383
tp29
sS'inclination'
p30
I80
ssS'ngc3079'
p31
(dp32
g3
(F150.4908475
F55.6797894
tp33
sg5
S'785 pc'
p34
sg7
F0.003723
ssS'ngc6240'
p35
(dp36
g3
(F253.245295
F2.400926
tp37
sg5
S'4994 pc'
p38
sg7
F0.02448
ss.